target datalayout = "e-m:e-p270:32:32-p271:32:32-p272:64:64-i64:64-i128:128-f80:128-n8:16:32:64-S128"
target triple = "x86_64-unknown-linux-gnu"

@.str.24 = private unnamed_addr constant [9 x i8] c"vhdxfile\00", align 1

; Function Attrs: nounwind sspstrong uwtable
define internal i32 @vhdx_probe(ptr noundef %buf, i32 noundef %buf_size, ptr noundef %filename) #0 {
entry:
  %retval = alloca i32, align 4
  %buf.addr = alloca ptr, align 8
  %buf_size.addr = alloca i32, align 4
  %filename.addr = alloca ptr, align 8
  store ptr %buf, ptr %buf.addr, align 8
  store i32 %buf_size, ptr %buf_size.addr, align 4
  store ptr %filename, ptr %filename.addr, align 8
  %0 = load i32, ptr %buf_size.addr, align 4
  %cmp = icmp sge i32 %0, 8
  br i1 %cmp, label %land.lhs.true, label %if.end

land.lhs.true:                                    ; preds = %entry
  %1 = load ptr, ptr %buf.addr, align 8
  %call = call i32 @memcmp(ptr noundef %1, ptr noundef @.str.24, i64 noundef 8) #11
  %tobool = icmp ne i32 %call, 0
  br i1 %tobool, label %if.end, label %if.then

if.then:                                          ; preds = %land.lhs.true
  store i32 100, ptr %retval, align 4
  br label %return

if.end:                                           ; preds = %land.lhs.true, %entry
  store i32 0, ptr %retval, align 4
  br label %return

return:                                           ; preds = %if.end, %if.then
  %2 = load i32, ptr %retval, align 4
  ret i32 %2
}