; Function Attrs: mustprogress nofree nounwind sspstrong willreturn memory(argmem: read) uwtable
define internal range(i32 0, 101) i32 @vhdx_probe(ptr noundef readonly captures(none) %buf, i32 noundef %buf_size, ptr readnone captures(none) %filename) #6 {
entry:
  %cmp = icmp sgt i32 %buf_size, 7
  br i1 %cmp, label %land.lhs.true, label %if.end

land.lhs.true:                                    ; preds = %entry
  %bcmp = tail call i32 @bcmp(ptr noundef nonnull dereferenceable(8) %buf, ptr noundef nonnull dereferenceable(8) @.str.24, i64 8)
  %tobool.not = icmp eq i32 %bcmp, 0
  br i1 %tobool.not, label %return, label %if.end

if.end:                                           ; preds = %land.lhs.true, %entry
  br label %return

return:                                           ; preds = %land.lhs.true, %if.end
  %retval.0 = phi i32 [ 0, %if.end ], [ 100, %land.lhs.true ]
  ret i32 %retval.0
}